; Function Attrs: mustprogress uwtable
define dso_local noundef nonnull align 8 dereferenceable(48) ptr @_ZN11cmExportSet28GetPackageDependencyForSetupERKNSt7__cxx1112basic_stringIcSt11char_traitsIcESaIcEEE(ptr noundef nonnull align 8 dereferenceable(132) %0, ptr noundef nonnull align 8 dereferenceable(32) %1) local_unnamed_addr #6 align 2 personality ptr @__gxx_personality_v0 {
  %3 = getelementptr inbounds nuw i8, ptr %0, i64 80
  %4 = tail call noundef nonnull align 8 dereferenceable(48) ptr @_ZNSt3mapINSt7__cxx1112basic_stringIcSt11char_traitsIcESaIcEEEN11cmExportSet17PackageDependencyESt4lessIS5_ESaISt4pairIKS5_S7_EEEixERSB_(ptr noundef nonnull align 8 dereferenceable(48) %3, ptr noundef nonnull align 8 dereferenceable(32) %1)
  %5 = getelementptr inbounds nuw i8, ptr %4, i64 36
  %6 = load i8, ptr %5, align 4, !tbaa !47, !range !50, !noundef !51
  %7 = trunc nuw i8 %6 to i1
  br i1 %7, label %14, label %8

8:                                                ; preds = %2
  %9 = getelementptr inbounds nuw i8, ptr %4, i64 32
  %10 = getelementptr inbounds nuw i8, ptr %0, i64 128
  %11 = load i32, ptr %10, align 8, !tbaa !52
  %.sroa.0.0.insert.ext = zext i32 %11 to i64
  %.sroa.0.0.insert.insert = or disjoint i64 %.sroa.0.0.insert.ext, 4294967296
  store i64 %.sroa.0.0.insert.insert, ptr %9, align 8
  %12 = load i32, ptr %10, align 8, !tbaa !24
  %13 = add i32 %12, 1
  store i32 %13, ptr %10, align 8, !tbaa !24
  br label %14

14:                                               ; preds = %8, %2
  ret ptr %4
}